; Function Attrs: nounwind sspstrong uwtable
define dso_local noundef zeroext i1 @job_is_ready(ptr noundef readonly captures(none) %0) local_unnamed_addr #0 {
  %2 = load atomic i64, ptr @qemu_mutex_lock_func monotonic, align 8
  %3 = inttoptr i64 %2 to ptr
  tail call void %3(ptr noundef nonnull @job_mutex, ptr noundef nonnull @.str.29, i32 noundef 56) #15
  %4 = getelementptr inbounds nuw i8, ptr %0, i64 124
  %5 = load i32, ptr %4, align 4
  %6 = icmp ult i32 %5, 11
  br i1 %6, label %switch.lookup, label %7

7:                                                ; preds = %1
  tail call void @g_assertion_message_expr(ptr noundef null, ptr noundef nonnull @.str, i32 noundef 289, ptr noundef nonnull @__func__.job_is_ready_locked, ptr noundef null) #17
  unreachable

switch.lookup:                                    ; preds = %1
  %switch.cast = trunc nuw i32 %5 to i11
  %switch.downshift = lshr i11 48, %switch.cast
  %switch.masked = trunc i11 %switch.downshift to i1
  tail call void @qemu_mutex_unlock_impl(ptr noundef nonnull @job_mutex, ptr noundef nonnull @.str.29, i32 noundef 56) #15
  ret i1 %switch.masked
}